; Function Attrs: mustprogress nofree norecurse nosync nounwind willreturn memory(argmem: read) uwtable
define noundef nonnull align 8 dereferenceable(64) ptr @_ZNK6icu_7515AlphabeticIndex14getBucketLabelEv(ptr noundef nonnull readonly align 8 dereferenceable(400) %this) unnamed_addr #8 align 2 {
entry:
  %currentBucket_ = getelementptr inbounds i8, ptr %this, i64 24
  %0 = load ptr, ptr %currentBucket_, align 8
  %cmp.not = icmp eq ptr %0, null
  %label_ = getelementptr inbounds i8, ptr %0, i64 8
  %emptyString_ = getelementptr inbounds i8, ptr %this, i64 336
  %retval.0 = select i1 %cmp.not, ptr %emptyString_, ptr %label_
  ret ptr %retval.0
}